Certificate:
    Data:
        Version: 3 (0x2)
        Serial Number: 4096 (0x1000)
        Signature Algorithm: sha256WithRSAEncryption
        Issuer: CN=www.modelCA.com, O=Model CA LTD., C=US
        Validity
            Not Before: Oct 19 01:18:06 2021 GMT
            Not After : Oct 17 01:18:06 2031 GMT
        Subject: C=US, O=myDomain Inc., CN=www.halizadeh2024.com
        Subject Public Key Info:
            Public Key Algorithm: rsaEncryption
                RSA Public-Key: (2048 bit)
                Modulus:
                    00:c1:19:d2:de:fa:ca:d8:9c:27:73:11:79:ce:f5:
                    37:0d:e3:87:94:22:81:ad:91:92:02:82:52:c9:da:
                    ee:e0:b5:84:8e:27:50:92:bb:a0:14:e9:4a:69:64:
                    a5:5c:5d:a7:08:fa:bf:f3:b4:b8:d5:2e:3e:d8:12:
                    27:43:7e:0c:6b:f6:20:f7:0b:81:cc:99:81:54:50:
                    73:4a:5f:8d:2a:bf:19:16:c4:eb:67:93:33:bc:02:
                    aa:59:10:c1:45:b2:c1:3e:86:de:e4:31:7b:31:c1:
                    77:f6:2f:3a:c6:5a:06:a0:10:ed:12:df:07:c9:8d:
                    bb:b6:12:f6:7d:6f:8d:e6:db:dd:f7:2d:43:1b:3c:
                    92:0e:61:dd:89:f1:93:89:14:34:7a:be:ae:52:c6:
                    fc:49:dc:0a:eb:2b:42:af:42:f8:de:90:f8:88:9c:
                    17:9e:d3:30:43:6c:42:d4:0c:95:17:8d:fa:e1:04:
                    e6:4b:63:91:45:51:e6:11:29:ae:c7:87:39:e8:15:
                    86:4d:4f:41:23:a4:e8:4d:c5:46:9f:f9:3d:66:48:
                    65:f6:55:be:7f:3d:66:f3:8a:98:af:35:78:40:6e:
                    94:89:1b:de:64:74:04:b3:70:42:99:85:93:0e:16:
                    b4:c0:dc:b7:7f:cc:a1:45:0a:d8:2f:e2:3f:02:6c:
                    69:df
                Exponent: 65537 (0x10001)
        X509v3 extensions:
            X509v3 Basic Constraints: 
                CA:FALSE
            Netscape Comment: 
                OpenSSL Generated Certificate
            X509v3 Subject Key Identifier: 
                3D:6B:D9:8F:88:44:A2:AF:6F:5A:7B:FB:07:22:64:4A:0E:63:7F:80
            X509v3 Authority Key Identifier: 
                keyid:3A:C7:C5:4C:EC:49:5F:07:21:B2:58:28:8A:6F:01:13:68:50:60:DD

            X509v3 Subject Alternative Name: 
                DNS:www.halizadeh2024.com, DNS:www.halizadeh2024.ca, DNS:www.halizadeh2024.io
    Signature Algorithm: sha256WithRSAEncryption
         8c:8f:bf:01:23:d4:48:58:e3:9d:5e:3e:46:37:5a:98:94:41:
         f4:00:04:49:8f:57:e3:68:64:5a:94:ca:85:87:f2:b4:7d:5f:
         6e:04:89:39:b8:ef:3d:07:32:70:f0:8a:ee:53:de:37:aa:48:
         e9:74:65:3f:07:d6:7e:6d:6d:fb:a2:11:2b:9b:e2:97:a9:db:
         85:03:87:c3:0c:3a:14:b8:c8:db:86:94:8f:65:10:bb:f1:0f:
         a5:4b:bd:65:17:ea:5a:7c:6e:d8:66:31:69:9f:4d:c3:00:10:
         02:c0:6e:9d:92:53:1f:f0:90:53:bc:0d:61:50:25:25:7d:f4:
         a3:b2:e3:5c:3d:0f:3a:fd:a8:e8:9d:f1:d3:24:2c:0c:dc:74:
         eb:86:5e:f8:3a:e5:59:9e:6a:e7:b3:0b:17:d6:a2:9d:a3:77:
         89:31:33:32:e5:a9:2d:7b:ff:f1:bb:e0:d2:e6:18:eb:aa:e5:
         07:5c:bd:f3:d4:54:24:c1:c5:c5:00:b8:f7:1e:ba:03:00:ea:
         b7:4c:10:e2:5e:95:51:e4:06:2e:9d:6e:b5:17:ec:de:2a:05:
         15:79:45:6b:b7:3c:77:0a:2c:e4:f4:98:a2:03:4b:7e:ad:52:
         b7:3d:89:c4:d5:4f:e7:b1:6f:f8:f9:d7:b2:26:6d:e4:16:42:
         8a:f9:9c:99:40:9d:07:d0:d1:8f:2c:e6:ce:79:05:7b:10:59:
         21:f0:a2:ad:b5:ab:fc:c4:db:df:ab:96:8b:55:bd:ae:f9:04:
         51:c5:eb:68:2d:ac:7d:5b:21:70:d2:9e:ee:33:cb:51:88:1c:
         9b:23:70:1e:67:ba:ca:d3:9c:c6:2f:74:ba:45:52:3c:35:b1:
         47:6d:68:7a:1a:bf:dc:a1:12:39:0e:31:0b:69:95:8d:dd:a3:
         92:ab:68:f0:c8:15:fd:69:69:6a:1b:49:a3:3e:e0:88:0a:7d:
         b1:c6:e3:29:6d:49:33:3e:f8:52:46:fa:df:d2:fe:aa:54:7f:
         66:1d:0d:fe:b0:be:29:cb:2a:f0:b7:1e:33:a1:86:5a:e1:d3:
         35:ba:ef:05:5f:7d:7b:0a:15:cb:e8:97:9a:06:2b:09:7e:b8:
         78:22:a7:c0:02:b4:f3:c1:8e:08:f1:92:38:22:32:9b:a8:4b:
         7b:d9:04:26:eb:bc:55:d2:73:27:7f:f4:81:4e:03:44:75:20:
         a4:05:c3:e7:83:8c:80:c3:7d:00:9f:c2:57:f8:ba:38:a4:c4:
         83:8a:ec:2f:02:1e:fc:fb:1a:37:19:0d:b2:dc:b6:fd:98:2d:
         84:f9:5a:89:cc:88:50:4f:65:91:c9:31:c2:76:02:19:7b:6b:
         b4:65:fc:86:28:e3:eb:e0
-----BEGIN CERTIFICATE-----
MIIExzCCAq+gAwIBAgICEAAwDQYJKoZIhvcNAQELBQAwPzEYMBYGA1UEAwwPd3d3
Lm1vZGVsQ0EuY29tMRYwFAYDVQQKDA1Nb2RlbCBDQSBMVEQuMQswCQYDVQQGEwJV
UzAeFw0yMTEwMTkwMTE4MDZaFw0zMTEwMTcwMTE4MDZaMEQxCzAJBgNVBAYTAlVT
MRYwFAYDVQQKDA1teURvbWFpbiBJbmMuMR0wGwYDVQQDDBR3d3cuY2hhbmdpemky
MDIxLmNvbTCCASIwDQYJKoZIhvcNAQEBBQADggEPADCCAQoCggEBAMEZ0t76ytic
J3MRec71Nw3jh5Qiga2RkgKCUsna7uC1hI4nUJK7oBTpSmlkpVxdpwj6v/O0uNUu
PtgSJ0N+DGv2IPcLgcyZgVRQc0pfjSq/GRbE62eTM7wCqlkQwUWywT6G3uQxezHB
d/YvOsZaBqAQ7RLfB8mNu7YS9n1vjebb3fctQxs8kg5h3Ynxk4kUNHq+rlLG/Enc
CusrQq9C+N6Q+IicF57TMENsQtQMlReN+uEE5ktjkUVR5hEprseHOegVhk1PQSOk
6E3FRp/5PWZIZfZVvn89ZvOKmK81eEBulIkb3mR0BLNwQpmFkw4WtMDct3/MoUUK
2C/iPwJsad8CAwEAAaOBxzCBxDAJBgNVHRMEAjAAMCwGCWCGSAGG+EIBDQQfFh1P
cGVuU1NMIEdlbmVyYXRlZCBDZXJ0aWZpY2F0ZTAdBgNVHQ4EFgQUPWvZj4hEoq9v
Wnv7ByJkSg5jf4AwHwYDVR0jBBgwFoAUOsfFTOxJXwchslgoim8BE2hQYN0wSQYD
VR0RBEIwQIIQd3d3LmNoYW5naXppMjAyMYIVd3d3LmNoYW5naXppMjAyMWIuY29t
ghV3d3cuY2hhbmdpemkyMDIxYS5jb20wDQYJKoZIhvcNAQELBQADggIBAIyPvwEj
1EhY451ePkY3WpiUQfQABEmPV+NoZFqUyoWH8rR9X24EiTm47z0HMnDwiu5T3jeq
SOl0ZT8H1n5tbfuiESub4pep24UDh8MMOhS4yNuGlI9lELvxD6VLvWUX6lp8bthm
MWmfTcMAEALAbp2SUx/wkFO8DWFQJSV99KOy41w9Dzr9qOid8dMkLAzcdOuGXvg6
5VmeauezCxfWop2jd4kxMzLlqS17//G74NLmGOuq5QdcvfPUVCTBxcUAuPceugMA
6rdMEOJelVHkBi6dbrUX7N4qBRV5RWu3PHcKLOT0mKIDS36tUrc9icTVT+exb/j5
17ImbeQWQor5nJlAnQfQ0Y8s5s55BXsQWSHwoq21q/zE29+rlotVva75BFHF62gt
rH1bIXDSnu4zy1GIHJsjcB5nusrTnMYvdLpFUjw1sUdtaHoav9yhEjkOMQtplY3d
o5KraPDIFf1paWobSaM+4IgKfbHG4yltSTM++FJG+t/S/qpUf2YdDf6wvinLKvC3
HjOhhlrh0zW67wVffXsKFcvol5oGKwl+uHgip8ACtPPBjgjxkjgiMpuoS3vZBCbr
vFXScyd/9IFOA0R1IKQFw+eDjIDDfQCfwlf4ujikxIOK7C8CHvz7GjcZDbLctv2Y
LYT5WonMiFBPZZHJMcJ2Ahl7a7Rl/IYo4+vg
-----END CERTIFICATE-----
